; Function Attrs: mustprogress nounwind uwtable
define internal noalias noundef nonnull ptr @_ZN5clang4ento24ProgramStatePartialTraitIN4llvm12ImmutableSetIN12_GLOBAL__N_19ZeroStateENS2_17ImutContainerInfoIS5_EEEEvE13CreateContextERNS2_20BumpPtrAllocatorImplINS2_15MallocAllocatorELm4096ELm4096ELm128EEE(ptr noundef nonnull align 8 dereferenceable(96) %0) #0 align 2 {
  %2 = tail call noalias noundef nonnull dereferenceable(88) ptr @_Znwm(i64 noundef 88) #18
  tail call void @llvm.memset.p0.i64(ptr noundef nonnull align 8 dereferenceable(20) %2, i8 0, i64 20, i1 false)
  %3 = getelementptr inbounds nuw i8, ptr %2, i64 24
  %4 = ptrtoint ptr %0 to i64
  %5 = or disjoint i64 %4, 1
  store i64 %5, ptr %3, align 8
  %6 = getelementptr inbounds nuw i8, ptr %2, i64 32
  tail call void @llvm.memset.p0.i64(ptr noundef nonnull align 8 dereferenceable(48) %6, i8 0, i64 48, i1 false)
  %7 = getelementptr inbounds nuw i8, ptr %2, i64 80
  store i8 1, ptr %7, align 8
  ret ptr %2
}